(dp1
S'modification_time'
p2
F1644739347
sS'values'
p3
(dp4
S'ca.crl'
p5
(dp6
S'crl_filename'
p7
S'/var/efw/vpn/ca/crls/ca.crl'
p8
sS'name'
p9
S'ca'
p10
sS'lastmodified'
p11
S'2024-11-13 12:17:20'
p12
sS'has_crl'
p13
I01
sS'path'
p14
g8
sS'ID'
p15
g5
sS'size'
p16
F556
sssS'file_modification_time'
p17
(dp18
S'ca.crl'
p19
F1731521840
ssS'indexes'
p20
(dp21
g9
(dp22
g10
(lp23
g5
asss.